; Function Attrs: nofree norecurse nosync nounwind memory(readwrite, inaccessiblemem: none) uwtable
define internal void @scale_samples_s32(ptr noundef readonly captures(none) %0, ptr noundef readonly captures(none) %1, i32 noundef %2, i32 noundef %3, double noundef %4) #6 {
  %6 = load ptr, ptr %0, align 8, !tbaa !71
  %7 = load ptr, ptr %1, align 8, !tbaa !71
  %8 = icmp sgt i32 %2, 0
  %9 = icmp sgt i32 %3, 0
  %or.cond = and i1 %8, %9
  br i1 %or.cond, label %.preheader.us, label %._crit_edge19

.preheader.us:                                    ; preds = %5, %._crit_edge.us
  %.018.us = phi i32 [ %11, %._crit_edge.us ], [ 0, %5 ]
  %.01417.us = phi i32 [ %19, %._crit_edge.us ], [ 0, %5 ]
  %10 = sext i32 %.018.us to i64
  %11 = add i32 %3, %.018.us
  br label %12

12:                                               ; preds = %.preheader.us, %12
  %indvars.iv = phi i64 [ %10, %.preheader.us ], [ %indvars.iv.next, %12 ]
  %13 = getelementptr inbounds i32, ptr %7, i64 %indvars.iv
  %14 = load i32, ptr %13, align 4, !tbaa !50
  %15 = sitofp i32 %14 to double
  %16 = fmul nsz double %4, %15
  %17 = fptosi double %16 to i32
  %18 = getelementptr inbounds i32, ptr %6, i64 %indvars.iv
  store i32 %17, ptr %18, align 4, !tbaa !50
  %indvars.iv.next = add nsw i64 %indvars.iv, 1
  %lftr.wideiv = trunc i64 %indvars.iv.next to i32
  %exitcond.not = icmp eq i32 %11, %lftr.wideiv
  br i1 %exitcond.not, label %._crit_edge.us, label %12, !llvm.loop !103

._crit_edge.us:                                   ; preds = %12
  %19 = add nuw nsw i32 %.01417.us, 1
  %exitcond22.not = icmp eq i32 %19, %2
  br i1 %exitcond22.not, label %._crit_edge19, label %.preheader.us, !llvm.loop !104

._crit_edge19:                                    ; preds = %._crit_edge.us, %5
  ret void
}